; Function Attrs: mustprogress nofree norecurse nosync nounwind willreturn memory(read, inaccessiblemem: none) uwtable
define hidden noundef nonnull align 8 dereferenceable(32) ptr @_ZNK4cvc58internal6theory5arith6linear10Constraint17getConstraintRuleEv(ptr nocapture noundef nonnull readonly align 8 dereferenceable(145) %this) local_unnamed_addr #9 align 2 {
entry:
  %d_database = getelementptr inbounds i8, ptr %this, i64 72
  %0 = load ptr, ptr %d_database, align 8
  %d_watches = getelementptr inbounds i8, ptr %0, i64 272
  %1 = load ptr, ptr %d_watches, align 8
  %d_crid = getelementptr inbounds i8, ptr %this, i64 120
  %2 = load i64, ptr %d_crid, align 8
  %d_list.i = getelementptr inbounds i8, ptr %1, i64 40
  %3 = load ptr, ptr %d_list.i, align 8
  %add.ptr.i.i = getelementptr inbounds %"struct.cvc5::internal::theory::arith::linear::ConstraintRule", ptr %3, i64 %2
  ret ptr %add.ptr.i.i
}